; ModuleID = '61/920.c'
source_filename = "61/920.c"
target datalayout = "e-m:e-p270:32:32-p271:32:32-p272:64:64-i64:64-f80:128-n8:16:32:64-S128"
target triple = "x86_64-pc-linux-gnu"

@.str = private unnamed_addr constant [3 x i8] c"%d\00", align 1
@.str.1 = private unnamed_addr constant [4 x i8] c"%d\0A\00", align 1

; Function Attrs: noinline nounwind uwtable
define dso_local i32 @main() #0 {
  %1 = alloca i32, align 4
  %2 = alloca i32, align 4
  %3 = alloca i32, align 4
  %4 = alloca i32, align 4
  %5 = alloca i32, align 4
  %6 = alloca [999 x i32], align 16
  store i32 0, i32* %1, align 4
  store i32 0, i32* %3, align 4
  br label %7

7:                                                ; preds = %14, %0
  %8 = load i32, i32* %3, align 4
  %9 = icmp slt i32 %8, 999
  br i1 %9, label %10, label %17

10:                                               ; preds = %7
  %11 = load i32, i32* %3, align 4
  %12 = sext i32 %11 to i64
  %13 = getelementptr inbounds [999 x i32], [999 x i32]* %6, i64 0, i64 %12
  store i32 0, i32* %13, align 4
  br label %14

14:                                               ; preds = %10
  %15 = load i32, i32* %3, align 4
  %16 = add nsw i32 %15, 1
  store i32 %16, i32* %3, align 4
  br label %7

17:                                               ; preds = %7
  %18 = call i32 (i8*, ...) @__isoc99_scanf(i8* getelementptr inbounds ([3 x i8], [3 x i8]* @.str, i64 0, i64 0), i32* %2)
  store i32 1, i32* %3, align 4
  br label %19

19:                                               ; preds = %56, %17
  %20 = load i32, i32* %3, align 4
  %21 = load i32, i32* %2, align 4
  %22 = icmp sle i32 %20, %21
  br i1 %22, label %23, label %59

23:                                               ; preds = %19
  %24 = call i32 (i8*, ...) @__isoc99_scanf(i8* getelementptr inbounds ([3 x i8], [3 x i8]* @.str, i64 0, i64 0), i32* %5)
  %25 = getelementptr inbounds [999 x i32], [999 x i32]* %6, i64 0, i64 0
  store i32 1, i32* %25, align 16
  %26 = getelementptr inbounds [999 x i32], [999 x i32]* %6, i64 0, i64 1
  store i32 1, i32* %26, align 4
  store i32 2, i32* %4, align 4
  br label %27

27:                                               ; preds = %46, %23
  %28 = load i32, i32* %4, align 4
  %29 = load i32, i32* %5, align 4
  %30 = icmp slt i32 %28, %29
  br i1 %30, label %31, label %49

31:                                               ; preds = %27
  %32 = load i32, i32* %4, align 4
  %33 = sub nsw i32 %32, 2
  %34 = sext i32 %33 to i64
  %35 = getelementptr inbounds [999 x i32], [999 x i32]* %6, i64 0, i64 %34
  %36 = load i32, i32* %35, align 4
  %37 = load i32, i32* %4, align 4
  %38 = sub nsw i32 %37, 1
  %39 = sext i32 %38 to i64
  %40 = getelementptr inbounds [999 x i32], [999 x i32]* %6, i64 0, i64 %39
  %41 = load i32, i32* %40, align 4
  %42 = add nsw i32 %36, %41
  %43 = load i32, i32* %4, align 4
  %44 = sext i32 %43 to i64
  %45 = getelementptr inbounds [999 x i32], [999 x i32]* %6, i64 0, i64 %44
  store i32 %42, i32* %45, align 4
  br label %46

46:                                               ; preds = %31
  %47 = load i32, i32* %4, align 4
  %48 = add nsw i32 %47, 1
  store i32 %48, i32* %4, align 4
  br label %27

49:                                               ; preds = %27
  %50 = load i32, i32* %5, align 4
  %51 = sub nsw i32 %50, 1
  %52 = sext i32 %51 to i64
  %53 = getelementptr inbounds [999 x i32], [999 x i32]* %6, i64 0, i64 %52
  %54 = load i32, i32* %53, align 4
  %55 = call i32 (i8*, ...) @printf(i8* getelementptr inbounds ([4 x i8], [4 x i8]* @.str.1, i64 0, i64 0), i32 %54)
  br label %56

56:                                               ; preds = %49
  %57 = load i32, i32* %3, align 4
  %58 = add nsw i32 %57, 1
  store i32 %58, i32* %3, align 4
  br label %19

59:                                               ; preds = %19
  %60 = load i32, i32* %1, align 4
  ret i32 %60
}

declare dso_local i32 @__isoc99_scanf(i8*, ...) #1

declare dso_local i32 @printf(i8*, ...) #1


!llvm.module.flags = !{!0}
!llvm.ident = !{!1}

!0 = !{i32 1, !"wchar_size", i32 4}
!1 = !{!"clang version 10.0.0-4ubuntu1 "}
